target datalayout = "e-m:e-p270:32:32-p271:32:32-p272:64:64-i64:64-i128:128-f80:128-n8:16:32:64-S128"
target triple = "x86_64-pc-linux-gnu"

%"class.casadi::MX" = type { %"class.casadi::SharedObject" }
%"class.casadi::SharedObject" = type { ptr }
%"class.casadi::Sparsity" = type { %"class.casadi::SharedObject" }
%"class.casadi::MXNode" = type { %"class.casadi::SharedObjectInternal", i64, %"class.std::vector", %"class.casadi::Sparsity" }
%"class.casadi::SharedObjectInternal" = type { ptr, i64, ptr }
%"class.std::vector" = type { %"struct.std::_Vector_base" }
%"struct.std::_Vector_base" = type { %"struct.std::_Vector_base<casadi::MX, std::allocator<casadi::MX>>::_Vector_impl" }
%"struct.std::_Vector_base<casadi::MX, std::allocator<casadi::MX>>::_Vector_impl" = type { %"struct.std::_Vector_base<casadi::MX, std::allocator<casadi::MX>>::_Vector_impl_data" }
%"struct.std::_Vector_base<casadi::MX, std::allocator<casadi::MX>>::_Vector_impl_data" = type { ptr, ptr, ptr }

@.str.65 = private unnamed_addr constant [74 x i8] c"vector::_M_range_check: __n (which is %zu) >= this->size() (which is %zu)\00", align 1

; Function Attrs: mustprogress nounwind uwtable
define linkonce_odr hidden noundef i64 @_ZNKSt6vectorIN6casadi2MXESaIS1_EE4sizeEv(ptr noundef nonnull align 8 dereferenceable(24) %0) #7 comdat align 2 {
  %2 = alloca ptr, align 8
  store ptr %0, ptr %2, align 8
  %3 = load ptr, ptr %2, align 8
  %4 = getelementptr inbounds %"struct.std::_Vector_base", ptr %3, i32 0, i32 0
  %5 = getelementptr inbounds %"struct.std::_Vector_base<casadi::MX, std::allocator<casadi::MX>>::_Vector_impl_data", ptr %4, i32 0, i32 1
  %6 = load ptr, ptr %5, align 8
  %7 = getelementptr inbounds %"struct.std::_Vector_base", ptr %3, i32 0, i32 0
  %8 = getelementptr inbounds %"struct.std::_Vector_base<casadi::MX, std::allocator<casadi::MX>>::_Vector_impl_data", ptr %7, i32 0, i32 0
  %9 = load ptr, ptr %8, align 8
  %10 = ptrtoint ptr %6 to i64
  %11 = ptrtoint ptr %9 to i64
  %12 = sub i64 %10, %11
  %13 = sdiv exact i64 %12, 8
  ret i64 %13
}

; Function Attrs: mustprogress nounwind uwtable
define linkonce_odr void @_ZSt9__fill_a1IPyyEN9__gnu_cxx11__enable_ifIXsr11__is_scalarIT0_EE7__valueEvE6__typeET_S6_RKS3_(ptr noundef %0, ptr noundef %1, ptr noundef nonnull align 8 dereferenceable(8) %2) #7 comdat {
  %4 = alloca ptr, align 8
  %5 = alloca ptr, align 8
  %6 = alloca ptr, align 8
  %7 = alloca i64, align 8
  store ptr %0, ptr %4, align 8
  store ptr %1, ptr %5, align 8
  store ptr %2, ptr %6, align 8
  %8 = load ptr, ptr %6, align 8
  %9 = load i64, ptr %8, align 8
  store i64 %9, ptr %7, align 8
  br label %10

10:                                               ; preds = %17, %3
  %11 = load ptr, ptr %4, align 8
  %12 = load ptr, ptr %5, align 8
  %13 = icmp ne ptr %11, %12
  br i1 %13, label %14, label %20

14:                                               ; preds = %10
  %15 = load i64, ptr %7, align 8
  %16 = load ptr, ptr %4, align 8
  store i64 %15, ptr %16, align 8
  br label %17

17:                                               ; preds = %14
  %18 = load ptr, ptr %4, align 8
  %19 = getelementptr inbounds i64, ptr %18, i32 1
  store ptr %19, ptr %4, align 8
  br label %10, !llvm.loop !27

20:                                               ; preds = %10
  ret void
}

; Function Attrs: mustprogress nounwind uwtable
define linkonce_odr hidden noundef nonnull align 8 dereferenceable(8) ptr @_ZNK6casadi17SparsityInterfaceINS_2MXEE4selfEv(ptr noundef nonnull align 1 dereferenceable(1) %0) #7 comdat align 2 {
  %2 = alloca ptr, align 8
  store ptr %0, ptr %2, align 8
  %3 = load ptr, ptr %2, align 8
  ret ptr %3
}

; Function Attrs: mustprogress nounwind uwtable
define linkonce_odr hidden noundef nonnull align 8 dereferenceable(8) ptr @_ZNKSt6vectorIN6casadi2MXESaIS1_EEixEm(ptr noundef nonnull align 8 dereferenceable(24) %0, i64 noundef %1) #7 comdat align 2 {
  %3 = alloca ptr, align 8
  %4 = alloca i64, align 8
  store ptr %0, ptr %3, align 8
  store i64 %1, ptr %4, align 8
  %5 = load ptr, ptr %3, align 8
  %6 = getelementptr inbounds %"struct.std::_Vector_base", ptr %5, i32 0, i32 0
  %7 = getelementptr inbounds %"struct.std::_Vector_base<casadi::MX, std::allocator<casadi::MX>>::_Vector_impl_data", ptr %6, i32 0, i32 0
  %8 = load ptr, ptr %7, align 8
  %9 = load i64, ptr %4, align 8
  %10 = getelementptr inbounds %"class.casadi::MX", ptr %8, i64 %9
  ret ptr %10
}

; Function Attrs: mustprogress uwtable
define linkonce_odr hidden void @_ZNKSt6vectorIN6casadi2MXESaIS1_EE14_M_range_checkEm(ptr noundef nonnull align 8 dereferenceable(24) %0, i64 noundef %1) #4 comdat align 2 {
  %3 = alloca ptr, align 8
  %4 = alloca i64, align 8
  store ptr %0, ptr %3, align 8
  store i64 %1, ptr %4, align 8
  %5 = load ptr, ptr %3, align 8
  %6 = load i64, ptr %4, align 8
  %7 = call noundef i64 @_ZNKSt6vectorIN6casadi2MXESaIS1_EE4sizeEv(ptr noundef nonnull align 8 dereferenceable(24) %5) #3
  %8 = icmp uge i64 %6, %7
  br i1 %8, label %9, label %12

9:                                                ; preds = %2
  %10 = load i64, ptr %4, align 8
  %11 = call noundef i64 @_ZNKSt6vectorIN6casadi2MXESaIS1_EE4sizeEv(ptr noundef nonnull align 8 dereferenceable(24) %5) #3
  call void (ptr, ...) @_ZSt24__throw_out_of_range_fmtPKcz(ptr noundef @.str.65, i64 noundef %10, i64 noundef %11) #16
  unreachable

12:                                               ; preds = %2
  ret void
}

; Function Attrs: mustprogress uwtable
define linkonce_odr void @_ZSt8__fill_aIPyyEvT_S1_RKT0_(ptr noundef %0, ptr noundef %1, ptr noundef nonnull align 8 dereferenceable(8) %2) #4 comdat {
  %4 = alloca ptr, align 8
  %5 = alloca ptr, align 8
  %6 = alloca ptr, align 8
  store ptr %0, ptr %4, align 8
  store ptr %1, ptr %5, align 8
  store ptr %2, ptr %6, align 8
  %7 = load ptr, ptr %4, align 8
  %8 = load ptr, ptr %5, align 8
  %9 = load ptr, ptr %6, align 8
  call void @_ZSt9__fill_a1IPyyEN9__gnu_cxx11__enable_ifIXsr11__is_scalarIT0_EE7__valueEvE6__typeET_S6_RKS3_(ptr noundef %7, ptr noundef %8, ptr noundef nonnull align 8 dereferenceable(8) %9)
  ret void
}

; Function Attrs: mustprogress uwtable
define linkonce_odr hidden noundef nonnull align 8 dereferenceable(8) ptr @_ZNK6casadi13GenericMatrixINS_2MXEE8sparsityEv(ptr noundef nonnull align 1 dereferenceable(1) %0) #4 comdat align 2 {
  %2 = alloca ptr, align 8
  store ptr %0, ptr %2, align 8
  %3 = load ptr, ptr %2, align 8
  %4 = call noundef nonnull align 8 dereferenceable(8) ptr @_ZNK6casadi17SparsityInterfaceINS_2MXEE4selfEv(ptr noundef nonnull align 1 dereferenceable(1) %3)
  %5 = call noundef nonnull align 8 dereferenceable(8) ptr @_ZNK6casadi2MX8sparsityEv(ptr noundef nonnull align 8 dereferenceable(8) %4)
  ret ptr %5
}

; Function Attrs: mustprogress uwtable
define linkonce_odr hidden noundef nonnull align 8 dereferenceable(8) ptr @_ZNKSt6vectorIN6casadi2MXESaIS1_EE2atEm(ptr noundef nonnull align 8 dereferenceable(24) %0, i64 noundef %1) #4 comdat align 2 {
  %3 = alloca ptr, align 8
  %4 = alloca i64, align 8
  store ptr %0, ptr %3, align 8
  store i64 %1, ptr %4, align 8
  %5 = load ptr, ptr %3, align 8
  %6 = load i64, ptr %4, align 8
  call void @_ZNKSt6vectorIN6casadi2MXESaIS1_EE14_M_range_checkEm(ptr noundef nonnull align 8 dereferenceable(24) %5, i64 noundef %6)
  %7 = load i64, ptr %4, align 8
  %8 = call noundef nonnull align 8 dereferenceable(8) ptr @_ZNKSt6vectorIN6casadi2MXESaIS1_EEixEm(ptr noundef nonnull align 8 dereferenceable(24) %5, i64 noundef %7) #3
  ret ptr %8
}

; Function Attrs: mustprogress uwtable
define linkonce_odr void @_ZSt4fillIPyyEvT_S1_RKT0_(ptr noundef %0, ptr noundef %1, ptr noundef nonnull align 8 dereferenceable(8) %2) #4 comdat {
  %4 = alloca ptr, align 8
  %5 = alloca ptr, align 8
  %6 = alloca ptr, align 8
  store ptr %0, ptr %4, align 8
  store ptr %1, ptr %5, align 8
  store ptr %2, ptr %6, align 8
  %7 = load ptr, ptr %4, align 8
  %8 = load ptr, ptr %5, align 8
  %9 = load ptr, ptr %6, align 8
  call void @_ZSt8__fill_aIPyyEvT_S1_RKT0_(ptr noundef %7, ptr noundef %8, ptr noundef nonnull align 8 dereferenceable(8) %9)
  ret void
}

; Function Attrs: mustprogress uwtable
define linkonce_odr hidden noundef i64 @_ZNK6casadi6MXNode3nnzEx(ptr noundef nonnull align 8 dereferenceable(64) %0, i64 noundef %1) #4 comdat align 2 {
  %3 = alloca ptr, align 8
  %4 = alloca i64, align 8
  store ptr %0, ptr %3, align 8
  store i64 %1, ptr %4, align 8
  %5 = load ptr, ptr %3, align 8
  %6 = load i64, ptr %4, align 8
  %7 = load ptr, ptr %5, align 8
  %8 = getelementptr inbounds ptr, ptr %7, i64 44
  %9 = load ptr, ptr %8, align 8
  %10 = call noundef nonnull align 8 dereferenceable(8) ptr %9(ptr noundef nonnull align 8 dereferenceable(64) %5, i64 noundef %6)
  %11 = call noundef i64 @_ZNK6casadi8Sparsity3nnzEv(ptr noundef nonnull align 8 dereferenceable(8) %10)
  ret i64 %11
}

; Function Attrs: mustprogress uwtable
define linkonce_odr hidden noundef i64 @_ZNK6casadi13GenericMatrixINS_2MXEE3nnzEv(ptr noundef nonnull align 1 dereferenceable(1) %0) #4 comdat align 2 {
  %2 = alloca ptr, align 8
  store ptr %0, ptr %2, align 8
  %3 = load ptr, ptr %2, align 8
  %4 = call noundef nonnull align 8 dereferenceable(8) ptr @_ZNK6casadi13GenericMatrixINS_2MXEE8sparsityEv(ptr noundef nonnull align 1 dereferenceable(1) %3)
  %5 = call noundef i64 @_ZNK6casadi8Sparsity3nnzEv(ptr noundef nonnull align 8 dereferenceable(8) %4)
  ret i64 %5
}

; Function Attrs: mustprogress uwtable
define linkonce_odr hidden noundef nonnull align 8 dereferenceable(8) ptr @_ZNK6casadi6MXNode3depEx(ptr noundef nonnull align 8 dereferenceable(64) %0, i64 noundef %1) #4 comdat align 2 {
  %3 = alloca ptr, align 8
  %4 = alloca i64, align 8
  store ptr %0, ptr %3, align 8
  store i64 %1, ptr %4, align 8
  %5 = load ptr, ptr %3, align 8
  %6 = getelementptr inbounds %"class.casadi::MXNode", ptr %5, i32 0, i32 2
  %7 = load i64, ptr %4, align 8
  %8 = call noundef nonnull align 8 dereferenceable(8) ptr @_ZNKSt6vectorIN6casadi2MXESaIS1_EE2atEm(ptr noundef nonnull align 8 dereferenceable(24) %6, i64 noundef %7)
  ret ptr %8
}

; Function Attrs: mustprogress uwtable
define noundef i32 @_ZNK6casadi16GetNonzerosParam10sp_forwardEPPKyPPyPxS4_(ptr noundef nonnull align 8 dereferenceable(64) %0, ptr noundef %1, ptr noundef %2, ptr noundef %3, ptr noundef %4) unnamed_addr #4 align 2 {
  %6 = alloca ptr, align 8
  %7 = alloca ptr, align 8
  %8 = alloca ptr, align 8
  %9 = alloca ptr, align 8
  %10 = alloca ptr, align 8
  %11 = alloca i64, align 8
  %12 = alloca ptr, align 8
  store ptr %0, ptr %6, align 8
  store ptr %1, ptr %7, align 8
  store ptr %2, ptr %8, align 8
  store ptr %3, ptr %9, align 8
  store ptr %4, ptr %10, align 8
  %13 = load ptr, ptr %6, align 8
  %14 = load ptr, ptr %7, align 8
  %15 = getelementptr inbounds ptr, ptr %14, i64 0
  %16 = load ptr, ptr %15, align 8
  %17 = call noundef nonnull align 8 dereferenceable(8) ptr @_ZNK6casadi6MXNode3depEx(ptr noundef nonnull align 8 dereferenceable(64) %13, i64 noundef 0)
  %18 = call noundef i64 @_ZNK6casadi13GenericMatrixINS_2MXEE3nnzEv(ptr noundef nonnull align 1 dereferenceable(1) %17)
  %19 = call noundef i64 @_ZN6casadi7bvec_orEPKyx(ptr noundef %16, i64 noundef %18)
  store i64 %19, ptr %11, align 8
  %20 = load ptr, ptr %8, align 8
  %21 = getelementptr inbounds ptr, ptr %20, i64 0
  %22 = load ptr, ptr %21, align 8
  store ptr %22, ptr %12, align 8
  %23 = load ptr, ptr %12, align 8
  %24 = load ptr, ptr %12, align 8
  %25 = call noundef i64 @_ZNK6casadi6MXNode3nnzEx(ptr noundef nonnull align 8 dereferenceable(64) %13, i64 noundef 0)
  %26 = getelementptr inbounds i64, ptr %24, i64 %25
  call void @_ZSt4fillIPyyEvT_S1_RKT0_(ptr noundef %23, ptr noundef %26, ptr noundef nonnull align 8 dereferenceable(8) %11)
  ret i32 0
}