; Function Attrs: mustprogress uwtable
define noundef i32 @_ZNK6casadi16GetNonzerosParam10sp_forwardEPPKyPPyPxS4_(ptr noundef nonnull align 8 dereferenceable(64) %0, ptr nocapture noundef readonly %1, ptr nocapture noundef readonly %2, ptr nocapture readnone %3, ptr nocapture readnone %4) unnamed_addr #3 align 2 {
  %6 = getelementptr inbounds i8, ptr %0, i64 32
  %7 = getelementptr inbounds i8, ptr %0, i64 40
  %8 = load ptr, ptr %7, align 8
  %9 = load ptr, ptr %6, align 8
  %.not.i.i.i.not = icmp eq ptr %8, %9
  br i1 %.not.i.i.i.not, label %10, label %_ZNK6casadi6MXNode3depEx.exit

10:                                               ; preds = %5
  tail call void (ptr, ...) @_ZSt24__throw_out_of_range_fmtPKcz(ptr noundef nonnull @.str.65, i64 noundef 0, i64 noundef 0) #20
  unreachable

_ZNK6casadi6MXNode3depEx.exit:                    ; preds = %5
  %11 = load ptr, ptr %1, align 8
  %12 = tail call noundef nonnull align 8 dereferenceable(8) ptr @_ZNK6casadi2MX8sparsityEv(ptr noundef nonnull align 8 dereferenceable(8) %9)
  %13 = tail call noundef i64 @_ZNK6casadi8Sparsity3nnzEv(ptr noundef nonnull align 8 dereferenceable(8) %12)
  %14 = tail call noundef i64 @_ZN6casadi7bvec_orEPKyx(ptr noundef %11, i64 noundef %13)
  %15 = load ptr, ptr %2, align 8
  %16 = load ptr, ptr %0, align 8
  %17 = getelementptr inbounds i8, ptr %16, i64 352
  %18 = load ptr, ptr %17, align 8
  %19 = tail call noundef nonnull align 8 dereferenceable(8) ptr %18(ptr noundef nonnull align 8 dereferenceable(64) %0, i64 noundef 0)
  %20 = tail call noundef i64 @_ZNK6casadi8Sparsity3nnzEv(ptr noundef nonnull align 8 dereferenceable(8) %19)
  %21 = getelementptr inbounds i64, ptr %15, i64 %20
  %.not5.i.i.i = icmp eq i64 %20, 0
  br i1 %.not5.i.i.i, label %_ZSt4fillIPyyEvT_S1_RKT0_.exit, label %.lr.ph.i.i.i

.lr.ph.i.i.i:                                     ; preds = %_ZNK6casadi6MXNode3depEx.exit, %.lr.ph.i.i.i
  %.06.i.i.i = phi ptr [ %22, %.lr.ph.i.i.i ], [ %15, %_ZNK6casadi6MXNode3depEx.exit ]
  store i64 %14, ptr %.06.i.i.i, align 8
  %22 = getelementptr inbounds i8, ptr %.06.i.i.i, i64 8
  %.not.i.i.i5 = icmp eq ptr %22, %21
  br i1 %.not.i.i.i5, label %_ZSt4fillIPyyEvT_S1_RKT0_.exit, label %.lr.ph.i.i.i, !llvm.loop !28

_ZSt4fillIPyyEvT_S1_RKT0_.exit:                   ; preds = %.lr.ph.i.i.i, %_ZNK6casadi6MXNode3depEx.exit
  ret i32 0
}